target datalayout = "e-m:e-p270:32:32-p271:32:32-p272:64:64-i64:64-i128:128-f80:128-n8:16:32:64-S128"
target triple = "x86_64-pc-linux-gnu"

%"struct.duckdb_miniz::mz_zip_archive" = type { i64, i64, i32, i32, i32, i32, i64, ptr, ptr, ptr, ptr, ptr, ptr, ptr, ptr, ptr }
%"struct.duckdb_miniz::mz_zip_internal_state_tag" = type { %"struct.duckdb_miniz::mz_zip_array", %"struct.duckdb_miniz::mz_zip_array", %"struct.duckdb_miniz::mz_zip_array", i32, i32, i32, ptr, i64, ptr, i64, i64 }
%"struct.duckdb_miniz::mz_zip_array" = type { ptr, i64, i64, i32 }

; Function Attrs: alwaysinline mustprogress uwtable
define internal void @_ZN12duckdb_minizL18mz_zip_array_clearEPNS_14mz_zip_archiveEPNS_12mz_zip_arrayE(ptr noundef %0, ptr noundef %1) #9 {
  %3 = alloca ptr, align 8
  %4 = alloca ptr, align 8
  store ptr %0, ptr %3, align 8, !tbaa !19
  store ptr %1, ptr %4, align 8, !tbaa !19
  %5 = load ptr, ptr %3, align 8, !tbaa !19
  %6 = getelementptr inbounds nuw %"struct.duckdb_miniz::mz_zip_archive", ptr %5, i32 0, i32 8
  %7 = load ptr, ptr %6, align 8, !tbaa !234
  %8 = load ptr, ptr %3, align 8, !tbaa !19
  %9 = getelementptr inbounds nuw %"struct.duckdb_miniz::mz_zip_archive", ptr %8, i32 0, i32 10
  %10 = load ptr, ptr %9, align 8, !tbaa !238
  %11 = load ptr, ptr %4, align 8, !tbaa !19
  %12 = getelementptr inbounds nuw %"struct.duckdb_miniz::mz_zip_array", ptr %11, i32 0, i32 0
  %13 = load ptr, ptr %12, align 8, !tbaa !305
  call void %7(ptr noundef %10, ptr noundef %13)
  %14 = load ptr, ptr %4, align 8, !tbaa !19
  call void @llvm.memset.p0.i64(ptr align 8 %14, i8 0, i64 32, i1 false)
  ret void
}

; Function Attrs: alwaysinline mustprogress nounwind uwtable
define internal noundef i32 @_ZN12duckdb_minizL16mz_zip_set_errorEPNS_14mz_zip_archiveENS_12mz_zip_errorE(ptr noundef %0, i32 noundef %1) #8 {
  %3 = alloca ptr, align 8
  %4 = alloca i32, align 4
  store ptr %0, ptr %3, align 8, !tbaa !19
  store i32 %1, ptr %4, align 4, !tbaa !242
  %5 = load ptr, ptr %3, align 8, !tbaa !19
  %6 = icmp ne ptr %5, null
  br i1 %6, label %7, label %11

7:                                                ; preds = %2
  %8 = load i32, ptr %4, align 4, !tbaa !242
  %9 = load ptr, ptr %3, align 8, !tbaa !19
  %10 = getelementptr inbounds nuw %"struct.duckdb_miniz::mz_zip_archive", ptr %9, i32 0, i32 5
  store i32 %8, ptr %10, align 4, !tbaa !236
  br label %11

11:                                               ; preds = %7, %2
  ret i32 0
}

; Function Attrs: mustprogress uwtable
define internal noundef i32 @_ZN12duckdb_minizL26mz_zip_writer_end_internalEPNS_14mz_zip_archiveEi(ptr noundef %0, i32 noundef %1) #5 {
  %3 = alloca i32, align 4
  %4 = alloca ptr, align 8
  %5 = alloca i32, align 4
  %6 = alloca ptr, align 8
  %7 = alloca i32, align 4
  %8 = alloca i32, align 4
  store ptr %0, ptr %4, align 8, !tbaa !19
  store i32 %1, ptr %5, align 4, !tbaa !10
  call void @llvm.lifetime.start.p0(i64 8, ptr %6) #11
  call void @llvm.lifetime.start.p0(i64 4, ptr %7) #11
  store i32 1, ptr %7, align 4, !tbaa !10
  %9 = load ptr, ptr %4, align 8, !tbaa !19
  %10 = icmp ne ptr %9, null
  br i1 %10, label %11, label %36

11:                                               ; preds = %2
  %12 = load ptr, ptr %4, align 8, !tbaa !19
  %13 = getelementptr inbounds nuw %"struct.duckdb_miniz::mz_zip_archive", ptr %12, i32 0, i32 15
  %14 = load ptr, ptr %13, align 8, !tbaa !227
  %15 = icmp ne ptr %14, null
  br i1 %15, label %16, label %36

16:                                               ; preds = %11
  %17 = load ptr, ptr %4, align 8, !tbaa !19
  %18 = getelementptr inbounds nuw %"struct.duckdb_miniz::mz_zip_archive", ptr %17, i32 0, i32 7
  %19 = load ptr, ptr %18, align 8, !tbaa !233
  %20 = icmp ne ptr %19, null
  br i1 %20, label %21, label %36

21:                                               ; preds = %16
  %22 = load ptr, ptr %4, align 8, !tbaa !19
  %23 = getelementptr inbounds nuw %"struct.duckdb_miniz::mz_zip_archive", ptr %22, i32 0, i32 8
  %24 = load ptr, ptr %23, align 8, !tbaa !234
  %25 = icmp ne ptr %24, null
  br i1 %25, label %26, label %36

26:                                               ; preds = %21
  %27 = load ptr, ptr %4, align 8, !tbaa !19
  %28 = getelementptr inbounds nuw %"struct.duckdb_miniz::mz_zip_archive", ptr %27, i32 0, i32 3
  %29 = load i32, ptr %28, align 4, !tbaa !235
  %30 = icmp ne i32 %29, 2
  br i1 %30, label %31, label %43

31:                                               ; preds = %26
  %32 = load ptr, ptr %4, align 8, !tbaa !19
  %33 = getelementptr inbounds nuw %"struct.duckdb_miniz::mz_zip_archive", ptr %32, i32 0, i32 3
  %34 = load i32, ptr %33, align 4, !tbaa !235
  %35 = icmp ne i32 %34, 3
  br i1 %35, label %36, label %43

36:                                               ; preds = %31, %21, %16, %11, %2
  %37 = load i32, ptr %5, align 4, !tbaa !10
  %38 = icmp ne i32 %37, 0
  br i1 %38, label %39, label %42

39:                                               ; preds = %36
  %40 = load ptr, ptr %4, align 8, !tbaa !19
  %41 = call noundef i32 @_ZN12duckdb_minizL16mz_zip_set_errorEPNS_14mz_zip_archiveENS_12mz_zip_errorE(ptr noundef %40, i32 noundef 24)
  br label %42

42:                                               ; preds = %39, %36
  store i32 0, ptr %3, align 4
  store i32 1, ptr %8, align 4
  br label %90

43:                                               ; preds = %31, %26
  %44 = load ptr, ptr %4, align 8, !tbaa !19
  %45 = getelementptr inbounds nuw %"struct.duckdb_miniz::mz_zip_archive", ptr %44, i32 0, i32 15
  %46 = load ptr, ptr %45, align 8, !tbaa !227
  store ptr %46, ptr %6, align 8, !tbaa !237
  %47 = load ptr, ptr %4, align 8, !tbaa !19
  %48 = getelementptr inbounds nuw %"struct.duckdb_miniz::mz_zip_archive", ptr %47, i32 0, i32 15
  store ptr null, ptr %48, align 8, !tbaa !227
  %49 = load ptr, ptr %4, align 8, !tbaa !19
  %50 = load ptr, ptr %6, align 8, !tbaa !237
  %51 = getelementptr inbounds nuw %"struct.duckdb_miniz::mz_zip_internal_state_tag", ptr %50, i32 0, i32 0
  call void @_ZN12duckdb_minizL18mz_zip_array_clearEPNS_14mz_zip_archiveEPNS_12mz_zip_arrayE(ptr noundef %49, ptr noundef %51)
  %52 = load ptr, ptr %4, align 8, !tbaa !19
  %53 = load ptr, ptr %6, align 8, !tbaa !237
  %54 = getelementptr inbounds nuw %"struct.duckdb_miniz::mz_zip_internal_state_tag", ptr %53, i32 0, i32 1
  call void @_ZN12duckdb_minizL18mz_zip_array_clearEPNS_14mz_zip_archiveEPNS_12mz_zip_arrayE(ptr noundef %52, ptr noundef %54)
  %55 = load ptr, ptr %4, align 8, !tbaa !19
  %56 = load ptr, ptr %6, align 8, !tbaa !237
  %57 = getelementptr inbounds nuw %"struct.duckdb_miniz::mz_zip_internal_state_tag", ptr %56, i32 0, i32 2
  call void @_ZN12duckdb_minizL18mz_zip_array_clearEPNS_14mz_zip_archiveEPNS_12mz_zip_arrayE(ptr noundef %55, ptr noundef %57)
  %58 = load ptr, ptr %4, align 8, !tbaa !19
  %59 = getelementptr inbounds nuw %"struct.duckdb_miniz::mz_zip_archive", ptr %58, i32 0, i32 12
  %60 = load ptr, ptr %59, align 8, !tbaa !320
  %61 = icmp eq ptr %60, @_ZN12duckdb_minizL22mz_zip_heap_write_funcEPvmPKvm
  br i1 %61, label %62, label %79

62:                                               ; preds = %43
  %63 = load ptr, ptr %6, align 8, !tbaa !237
  %64 = getelementptr inbounds nuw %"struct.duckdb_miniz::mz_zip_internal_state_tag", ptr %63, i32 0, i32 8
  %65 = load ptr, ptr %64, align 8, !tbaa !261
  %66 = icmp ne ptr %65, null
  br i1 %66, label %67, label %79

67:                                               ; preds = %62
  %68 = load ptr, ptr %4, align 8, !tbaa !19
  %69 = getelementptr inbounds nuw %"struct.duckdb_miniz::mz_zip_archive", ptr %68, i32 0, i32 8
  %70 = load ptr, ptr %69, align 8, !tbaa !234
  %71 = load ptr, ptr %4, align 8, !tbaa !19
  %72 = getelementptr inbounds nuw %"struct.duckdb_miniz::mz_zip_archive", ptr %71, i32 0, i32 10
  %73 = load ptr, ptr %72, align 8, !tbaa !238
  %74 = load ptr, ptr %6, align 8, !tbaa !237
  %75 = getelementptr inbounds nuw %"struct.duckdb_miniz::mz_zip_internal_state_tag", ptr %74, i32 0, i32 8
  %76 = load ptr, ptr %75, align 8, !tbaa !261
  call void %70(ptr noundef %73, ptr noundef %76)
  %77 = load ptr, ptr %6, align 8, !tbaa !237
  %78 = getelementptr inbounds nuw %"struct.duckdb_miniz::mz_zip_internal_state_tag", ptr %77, i32 0, i32 8
  store ptr null, ptr %78, align 8, !tbaa !261
  br label %79

79:                                               ; preds = %67, %62, %43
  %80 = load ptr, ptr %4, align 8, !tbaa !19
  %81 = getelementptr inbounds nuw %"struct.duckdb_miniz::mz_zip_archive", ptr %80, i32 0, i32 8
  %82 = load ptr, ptr %81, align 8, !tbaa !234
  %83 = load ptr, ptr %4, align 8, !tbaa !19
  %84 = getelementptr inbounds nuw %"struct.duckdb_miniz::mz_zip_archive", ptr %83, i32 0, i32 10
  %85 = load ptr, ptr %84, align 8, !tbaa !238
  %86 = load ptr, ptr %6, align 8, !tbaa !237
  call void %82(ptr noundef %85, ptr noundef %86)
  %87 = load ptr, ptr %4, align 8, !tbaa !19
  %88 = getelementptr inbounds nuw %"struct.duckdb_miniz::mz_zip_archive", ptr %87, i32 0, i32 3
  store i32 0, ptr %88, align 4, !tbaa !235
  %89 = load i32, ptr %7, align 4, !tbaa !10
  store i32 %89, ptr %3, align 4
  store i32 1, ptr %8, align 4
  br label %90

90:                                               ; preds = %79, %42
  call void @llvm.lifetime.end.p0(i64 4, ptr %7) #11
  call void @llvm.lifetime.end.p0(i64 8, ptr %6) #11
  %91 = load i32, ptr %3, align 4
  ret i32 %91
}

; Function Attrs: mustprogress uwtable
define noundef i32 @_ZN12duckdb_miniz26mz_zip_writer_init_heap_v2EPNS_14mz_zip_archiveEmmj(ptr noundef %0, i64 noundef %1, i64 noundef %2, i32 noundef %3) #5 {
  %5 = alloca i32, align 4
  %6 = alloca ptr, align 8
  %7 = alloca i64, align 8
  %8 = alloca i64, align 8
  %9 = alloca i32, align 4
  store ptr %0, ptr %6, align 8, !tbaa !19
  store i64 %1, ptr %7, align 8, !tbaa !3
  store i64 %2, ptr %8, align 8, !tbaa !3
  store i32 %3, ptr %9, align 4, !tbaa !10
  %10 = load ptr, ptr %6, align 8, !tbaa !19
  %11 = getelementptr inbounds nuw %"struct.duckdb_miniz::mz_zip_archive", ptr %10, i32 0, i32 12
  store ptr @_ZN12duckdb_minizL22mz_zip_heap_write_funcEPvmPKvm, ptr %11, align 8, !tbaa !320
  %12 = load ptr, ptr %6, align 8, !tbaa !19
  %13 = getelementptr inbounds nuw %"struct.duckdb_miniz::mz_zip_archive", ptr %12, i32 0, i32 13
  store ptr null, ptr %13, align 8, !tbaa !260
  %14 = load i32, ptr %9, align 4, !tbaa !10
  %15 = and i32 %14, 32768
  %16 = icmp ne i32 %15, 0
  br i1 %16, label %17, label %20

17:                                               ; preds = %4
  %18 = load ptr, ptr %6, align 8, !tbaa !19
  %19 = getelementptr inbounds nuw %"struct.duckdb_miniz::mz_zip_archive", ptr %18, i32 0, i32 11
  store ptr @_ZN12duckdb_minizL20mz_zip_mem_read_funcEPvmS0_m, ptr %19, align 8, !tbaa !239
  br label %20

20:                                               ; preds = %17, %4
  %21 = load ptr, ptr %6, align 8, !tbaa !19
  %22 = load ptr, ptr %6, align 8, !tbaa !19
  %23 = getelementptr inbounds nuw %"struct.duckdb_miniz::mz_zip_archive", ptr %22, i32 0, i32 14
  store ptr %21, ptr %23, align 8, !tbaa !254
  %24 = load ptr, ptr %6, align 8, !tbaa !19
  %25 = load i64, ptr %7, align 8, !tbaa !3
  %26 = load i32, ptr %9, align 4, !tbaa !10
  %27 = call noundef i32 @_ZN12duckdb_miniz21mz_zip_writer_init_v2EPNS_14mz_zip_archiveEmj(ptr noundef %24, i64 noundef %25, i32 noundef %26)
  %28 = icmp ne i32 %27, 0
  br i1 %28, label %30, label %29

29:                                               ; preds = %20
  store i32 0, ptr %5, align 4
  br label %69

30:                                               ; preds = %20
  %31 = load ptr, ptr %6, align 8, !tbaa !19
  %32 = getelementptr inbounds nuw %"struct.duckdb_miniz::mz_zip_archive", ptr %31, i32 0, i32 4
  store i32 3, ptr %32, align 8, !tbaa !240
  %33 = load i64, ptr %8, align 8, !tbaa !3
  %34 = load i64, ptr %7, align 8, !tbaa !3
  %35 = icmp ugt i64 %33, %34
  br i1 %35, label %36, label %38

36:                                               ; preds = %30
  %37 = load i64, ptr %8, align 8, !tbaa !3
  br label %40

38:                                               ; preds = %30
  %39 = load i64, ptr %7, align 8, !tbaa !3
  br label %40

40:                                               ; preds = %38, %36
  %41 = phi i64 [ %37, %36 ], [ %39, %38 ]
  store i64 %41, ptr %8, align 8, !tbaa !3
  %42 = icmp ne i64 0, %41
  br i1 %42, label %43, label %68

43:                                               ; preds = %40
  %44 = load ptr, ptr %6, align 8, !tbaa !19
  %45 = getelementptr inbounds nuw %"struct.duckdb_miniz::mz_zip_archive", ptr %44, i32 0, i32 7
  %46 = load ptr, ptr %45, align 8, !tbaa !233
  %47 = load ptr, ptr %6, align 8, !tbaa !19
  %48 = getelementptr inbounds nuw %"struct.duckdb_miniz::mz_zip_archive", ptr %47, i32 0, i32 10
  %49 = load ptr, ptr %48, align 8, !tbaa !238
  %50 = load i64, ptr %8, align 8, !tbaa !3
  %51 = call noundef ptr %46(ptr noundef %49, i64 noundef 1, i64 noundef %50)
  %52 = load ptr, ptr %6, align 8, !tbaa !19
  %53 = getelementptr inbounds nuw %"struct.duckdb_miniz::mz_zip_archive", ptr %52, i32 0, i32 15
  %54 = load ptr, ptr %53, align 8, !tbaa !227
  %55 = getelementptr inbounds nuw %"struct.duckdb_miniz::mz_zip_internal_state_tag", ptr %54, i32 0, i32 8
  store ptr %51, ptr %55, align 8, !tbaa !261
  %56 = icmp eq ptr null, %51
  br i1 %56, label %57, label %62

57:                                               ; preds = %43
  %58 = load ptr, ptr %6, align 8, !tbaa !19
  %59 = call noundef i32 @_ZN12duckdb_minizL26mz_zip_writer_end_internalEPNS_14mz_zip_archiveEi(ptr noundef %58, i32 noundef 0)
  %60 = load ptr, ptr %6, align 8, !tbaa !19
  %61 = call noundef i32 @_ZN12duckdb_minizL16mz_zip_set_errorEPNS_14mz_zip_archiveENS_12mz_zip_errorE(ptr noundef %60, i32 noundef 16)
  store i32 %61, ptr %5, align 4
  br label %69

62:                                               ; preds = %43
  %63 = load i64, ptr %8, align 8, !tbaa !3
  %64 = load ptr, ptr %6, align 8, !tbaa !19
  %65 = getelementptr inbounds nuw %"struct.duckdb_miniz::mz_zip_archive", ptr %64, i32 0, i32 15
  %66 = load ptr, ptr %65, align 8, !tbaa !227
  %67 = getelementptr inbounds nuw %"struct.duckdb_miniz::mz_zip_internal_state_tag", ptr %66, i32 0, i32 10
  store i64 %63, ptr %67, align 8, !tbaa !322
  br label %68

68:                                               ; preds = %62, %40
  store i32 1, ptr %5, align 4
  br label %69

69:                                               ; preds = %68, %57, %29
  %70 = load i32, ptr %5, align 4
  ret i32 %70
}