; Function Attrs: mustprogress uwtable
define noundef range(i32 0, 2) i32 @_ZN12duckdb_miniz26mz_zip_writer_init_heap_v2EPNS_14mz_zip_archiveEmmj(ptr noundef initializes((80, 96)) %0, i64 noundef %1, i64 noundef %2, i32 noundef %3) local_unnamed_addr #8 {
  %5 = getelementptr inbounds nuw i8, ptr %0, i64 80
  store ptr @_ZN12duckdb_minizL22mz_zip_heap_write_funcEPvmPKvm, ptr %5, align 8, !tbaa !294
  %6 = getelementptr inbounds nuw i8, ptr %0, i64 88
  store ptr null, ptr %6, align 8, !tbaa !240
  %7 = and i32 %3, 32768
  %.not = icmp eq i32 %7, 0
  br i1 %.not, label %10, label %8

8:                                                ; preds = %4
  %9 = getelementptr inbounds nuw i8, ptr %0, i64 72
  store ptr @_ZN12duckdb_minizL20mz_zip_mem_read_funcEPvmS0_m, ptr %9, align 8, !tbaa !217
  br label %10

10:                                               ; preds = %8, %4
  %11 = getelementptr inbounds nuw i8, ptr %0, i64 96
  store ptr %0, ptr %11, align 8, !tbaa !228
  %12 = tail call noundef i32 @_ZN12duckdb_miniz21mz_zip_writer_init_v2EPNS_14mz_zip_archiveEmj(ptr noundef nonnull %0, i64 noundef %1, i32 noundef %3)
  %.not23 = icmp eq i32 %12, 0
  br i1 %.not23, label %59, label %13

13:                                               ; preds = %10
  %14 = getelementptr inbounds nuw i8, ptr %0, i64 24
  store i32 3, ptr %14, align 8, !tbaa !226
  %15 = tail call i64 @llvm.umax.i64(i64 %2, i64 %1)
  %.not24 = icmp eq i64 %15, 0
  br i1 %.not24, label %59, label %16

16:                                               ; preds = %13
  %17 = getelementptr inbounds nuw i8, ptr %0, i64 40
  %18 = load ptr, ptr %17, align 8, !tbaa !210
  %19 = getelementptr inbounds nuw i8, ptr %0, i64 64
  %20 = load ptr, ptr %19, align 8, !tbaa !214
  %21 = tail call noundef ptr %18(ptr noundef %20, i64 noundef 1, i64 noundef %15)
  %22 = getelementptr inbounds nuw i8, ptr %0, i64 104
  %23 = load ptr, ptr %22, align 8, !tbaa !204
  %24 = getelementptr inbounds nuw i8, ptr %23, i64 128
  store ptr %21, ptr %24, align 8, !tbaa !241
  %25 = icmp eq ptr %21, null
  br i1 %25, label %26, label %57

26:                                               ; preds = %16
  %27 = load ptr, ptr %17, align 8, !tbaa !210
  %.not31.i = icmp eq ptr %27, null
  br i1 %.not31.i, label %_ZN12duckdb_minizL16mz_zip_set_errorEPNS_14mz_zip_archiveENS_12mz_zip_errorE.exit, label %28

28:                                               ; preds = %26
  %29 = getelementptr inbounds nuw i8, ptr %0, i64 48
  %30 = load ptr, ptr %29, align 8, !tbaa !211
  %.not32.i = icmp eq ptr %30, null
  br i1 %.not32.i, label %_ZN12duckdb_minizL16mz_zip_set_errorEPNS_14mz_zip_archiveENS_12mz_zip_errorE.exit, label %31

31:                                               ; preds = %28
  %32 = getelementptr inbounds nuw i8, ptr %0, i64 20
  %33 = load i32, ptr %32, align 4, !tbaa !212
  %34 = and i32 %33, -2
  %switch.i = icmp eq i32 %34, 2
  br i1 %switch.i, label %35, label %_ZN12duckdb_minizL16mz_zip_set_errorEPNS_14mz_zip_archiveENS_12mz_zip_errorE.exit

35:                                               ; preds = %31
  store ptr null, ptr %22, align 8, !tbaa !204
  %36 = load ptr, ptr %19, align 8, !tbaa !214
  %37 = load ptr, ptr %23, align 8, !tbaa !215
  tail call void %30(ptr noundef %36, ptr noundef %37)
  tail call void @llvm.memset.p0.i64(ptr noundef nonnull align 8 dereferenceable(32) %23, i8 0, i64 32, i1 false)
  %38 = getelementptr inbounds nuw i8, ptr %23, i64 32
  %39 = load ptr, ptr %29, align 8, !tbaa !211
  %40 = load ptr, ptr %19, align 8, !tbaa !214
  %41 = load ptr, ptr %38, align 8, !tbaa !215
  tail call void %39(ptr noundef %40, ptr noundef %41)
  tail call void @llvm.memset.p0.i64(ptr noundef nonnull align 8 dereferenceable(32) %38, i8 0, i64 32, i1 false)
  %42 = getelementptr inbounds nuw i8, ptr %23, i64 64
  %43 = load ptr, ptr %29, align 8, !tbaa !211
  %44 = load ptr, ptr %19, align 8, !tbaa !214
  %45 = load ptr, ptr %42, align 8, !tbaa !215
  tail call void %43(ptr noundef %44, ptr noundef %45)
  tail call void @llvm.memset.p0.i64(ptr noundef nonnull align 8 dereferenceable(32) %42, i8 0, i64 32, i1 false)
  %46 = load ptr, ptr %5, align 8, !tbaa !294
  %47 = icmp eq ptr %46, @_ZN12duckdb_minizL22mz_zip_heap_write_funcEPvmPKvm
  br i1 %47, label %48, label %53

48:                                               ; preds = %35
  %49 = load ptr, ptr %24, align 8, !tbaa !241
  %.not35.i = icmp eq ptr %49, null
  br i1 %.not35.i, label %53, label %50

50:                                               ; preds = %48
  %51 = load ptr, ptr %29, align 8, !tbaa !211
  %52 = load ptr, ptr %19, align 8, !tbaa !214
  tail call void %51(ptr noundef %52, ptr noundef nonnull %49)
  store ptr null, ptr %24, align 8, !tbaa !241
  br label %53

53:                                               ; preds = %50, %48, %35
  %54 = load ptr, ptr %29, align 8, !tbaa !211
  %55 = load ptr, ptr %19, align 8, !tbaa !214
  tail call void %54(ptr noundef %55, ptr noundef nonnull %23)
  store i32 0, ptr %32, align 4, !tbaa !212
  br label %_ZN12duckdb_minizL16mz_zip_set_errorEPNS_14mz_zip_archiveENS_12mz_zip_errorE.exit

_ZN12duckdb_minizL16mz_zip_set_errorEPNS_14mz_zip_archiveENS_12mz_zip_errorE.exit: ; preds = %26, %28, %31, %53
  %56 = getelementptr inbounds nuw i8, ptr %0, i64 28
  store i32 16, ptr %56, align 4, !tbaa !213
  br label %59

57:                                               ; preds = %16
  %58 = getelementptr inbounds nuw i8, ptr %23, i64 144
  store i64 %15, ptr %58, align 8, !tbaa !296
  br label %59

59:                                               ; preds = %13, %57, %10, %_ZN12duckdb_minizL16mz_zip_set_errorEPNS_14mz_zip_archiveENS_12mz_zip_errorE.exit
  %.0 = phi i32 [ 0, %_ZN12duckdb_minizL16mz_zip_set_errorEPNS_14mz_zip_archiveENS_12mz_zip_errorE.exit ], [ 0, %10 ], [ 1, %57 ], [ 1, %13 ]
  ret i32 %.0
}